	.cpu cortex-m4
	.eabi_attribute 27, 1
	.eabi_attribute 28, 1
	.eabi_attribute 20, 1
	.eabi_attribute 21, 1
	.eabi_attribute 23, 3
	.eabi_attribute 24, 1
	.eabi_attribute 25, 1
	.eabi_attribute 26, 1
	.eabi_attribute 30, 1
	.eabi_attribute 34, 1
	.eabi_attribute 18, 4
	.file	"m1b.c"
	.text
.Ltext0:
	.cfi_sections	.debug_frame
	.section	.text.delay_loop,"ax",%progbits
	.align	1
	.arch armv7e-m
	.syntax unified
	.thumb
	.thumb_func
	.fpu fpv4-sp-d16
	.type	delay_loop, %function
delay_loop:
.LVL0:
.LFB4:
	.file 1 "m1b.c"
	.loc 1 69 1 view -0
	.cfi_startproc
	@ args = 0, pretend = 0, frame = 0
	@ frame_needed = 0, uses_anonymous_args = 0
	@ link register save eliminated.
	.loc 1 70 5 view .LVU1
	.loc 1 70 10 is_stmt 0 view .LVU2
	b	.L2
.L3:
	.loc 1 72 8 is_stmt 1 view .LVU3
	.syntax unified
@ 72 "m1b.c" 1
	nop
@ 0 "" 2
	.loc 1 73 8 view .LVU4
	.loc 1 73 13 is_stmt 0 view .LVU5
	.thumb
	.syntax unified
	subs	r0, r0, #1
.LVL1:
.L2:
	.loc 1 70 10 is_stmt 1 view .LVU6
	cmp	r0, #0
	bgt	.L3
	.loc 1 75 1 is_stmt 0 view .LVU7
	bx	lr
	.cfi_endproc
.LFE4:
	.size	delay_loop, .-delay_loop
	.section	.text.clock_setup,"ax",%progbits
	.align	1
	.syntax unified
	.thumb
	.thumb_func
	.fpu fpv4-sp-d16
	.type	clock_setup, %function
clock_setup:
.LFB3:
	.loc 1 34 1 is_stmt 1 view -0
	.cfi_startproc
	@ args = 0, pretend = 0, frame = 0
	@ frame_needed = 0, uses_anonymous_args = 0
	push	{r4, lr}
.LCFI0:
	.cfi_def_cfa_offset 8
	.cfi_offset 4, -8
	.cfi_offset 14, -4
	sub	sp, sp, #8
.LCFI1:
	.cfi_def_cfa_offset 16
	.loc 1 36 2 view .LVU9
	movs	r0, #2
	bl	rcc_osc_on
.LVL2:
	.loc 1 39 2 view .LVU10
	bl	flash_prefetch_enable
.LVL3:
	.loc 1 40 2 view .LVU11
	movs	r0, #4
	bl	flash_set_ws
.LVL4:
	.loc 1 41 2 view .LVU12
	bl	flash_dcache_enable
.LVL5:
	.loc 1 42 2 view .LVU13
	bl	flash_icache_enable
.LVL6:
	.loc 1 45 2 view .LVU14
	movs	r4, #0
	str	r4, [sp, #4]
	str	r4, [sp]
	mov	r3, r4
	movs	r2, #40
	movs	r1, #4
	movs	r0, #2
	bl	rcc_set_main_pll
.LVL7:
	.loc 1 46 2 view .LVU15
	mov	r0, r4
	bl	rcc_osc_on
.LVL8:
	.loc 1 48 2 view .LVU16
	mov	r0, r4
	bl	rcc_wait_for_osc_ready
.LVL9:
	.loc 1 50 2 view .LVU17
	mov	r0, #2432
	bl	rcc_periph_clock_enable
.LVL10:
	.loc 1 52 2 view .LVU18
	movs	r0, #3
	bl	rcc_set_sysclk_source
.LVL11:
	.loc 1 53 2 view .LVU19
	mov	r0, r4
	bl	rcc_wait_for_sysclk_status
.LVL12:
	.loc 1 63 2 view .LVU20
	.loc 1 63 20 is_stmt 0 view .LVU21
	ldr	r3, .L6
	ldr	r2, .L6+4
	str	r3, [r2]
	.loc 1 64 2 is_stmt 1 view .LVU22
	.loc 1 64 21 is_stmt 0 view .LVU23
	ldr	r2, .L6+8
	str	r3, [r2]
	.loc 1 65 2 is_stmt 1 view .LVU24
	.loc 1 65 21 is_stmt 0 view .LVU25
	ldr	r2, .L6+12
	str	r3, [r2]
	.loc 1 66 1 view .LVU26
	add	sp, sp, #8
.LCFI2:
	.cfi_def_cfa_offset 8
	@ sp needed
	pop	{r4, pc}
.L7:
	.align	2
.L6:
	.word	80000000
	.word	rcc_ahb_frequency
	.word	rcc_apb1_frequency
	.word	rcc_apb2_frequency
	.cfi_endproc
.LFE3:
	.size	clock_setup, .-clock_setup
	.section	.text.main,"ax",%progbits
	.align	1
	.global	main
	.syntax unified
	.thumb
	.thumb_func
	.fpu fpv4-sp-d16
	.type	main, %function
main:
.LFB5:
	.loc 1 78 1 is_stmt 1 view -0
	.cfi_startproc
	@ Volatile: function does not return.
	@ args = 0, pretend = 0, frame = 0
	@ frame_needed = 0, uses_anonymous_args = 0
	push	{r3, lr}
.LCFI3:
	.cfi_def_cfa_offset 8
	.cfi_offset 3, -8
	.cfi_offset 14, -4
	.loc 1 81 2 view .LVU28
	bl	clock_setup
.LVL13:
	.loc 1 83 2 view .LVU29
	movs	r3, #32
	movs	r2, #1
	mov	r1, r2
	mov	r0, #1207959552
	bl	gpio_mode_setup
.LVL14:
.L9:
	.loc 1 85 2 discriminator 1 view .LVU30
	.loc 1 88 3 discriminator 1 view .LVU31
	movs	r1, #32
	mov	r0, #1207959552
	bl	gpio_toggle
.LVL15:
	.loc 1 90 3 discriminator 1 view .LVU32
	ldr	r0, .L11
	bl	delay_loop
.LVL16:
	.loc 1 85 7 discriminator 1 view .LVU33
	b	.L9
.L12:
	.align	2
.L11:
	.word	400000
	.cfi_endproc
.LFE5:
	.size	main, .-main
	.text
.Letext0:
	.file 2 "/usr/include/newlib/machine/_default_types.h"
	.file 3 "/usr/include/newlib/sys/_stdint.h"
	.file 4 "/home/kshelton/Documents/GitHub/libopencm3/include/libopencm3/stm32/l4/rcc.h"
	.file 5 "/home/kshelton/Documents/GitHub/libopencm3/include/libopencm3/stm32/common/gpio_common_f234.h"
	.file 6 "/home/kshelton/Documents/GitHub/libopencm3/include/libopencm3/stm32/common/gpio_common_all.h"
	.file 7 "/home/kshelton/Documents/GitHub/libopencm3/include/libopencm3/stm32/common/flash_common_all.h"
	.file 8 "/home/kshelton/Documents/GitHub/libopencm3/include/libopencm3/stm32/common/flash_common_idcache.h"
	.file 9 "/home/kshelton/Documents/GitHub/libopencm3/include/libopencm3/stm32/common/rcc_common_all.h"